target datalayout = "e-m:e-p270:32:32-p271:32:32-p272:64:64-i64:64-i128:128-f80:128-n8:16:32:64-S128"
target triple = "x86_64-pc-linux-gnu"

%struct.CRYPTO_REF_COUNT = type { i32 }
%struct.EVP_SEED_KEY = type { %struct.seed_key_st }
%struct.seed_key_st = type { [32 x i32] }
%struct.evp_cipher_st = type { i32, i32, i32, i32, i64, i32, ptr, ptr, ptr, i32, ptr, ptr, ptr, ptr, i32, ptr, ptr, ptr, %struct.CRYPTO_REF_COUNT, ptr, ptr, ptr, ptr, ptr, ptr, ptr, ptr, ptr, ptr, ptr, ptr, ptr, ptr, ptr, ptr, ptr, ptr, ptr, ptr }

; Function Attrs: nounwind uwtable
define internal i32 @seed_ecb_cipher(ptr noundef %0, ptr noundef %1, ptr noundef %2, i64 noundef %3) #0 {
  %5 = alloca i32, align 4
  %6 = alloca ptr, align 8
  %7 = alloca ptr, align 8
  %8 = alloca ptr, align 8
  %9 = alloca i64, align 8
  %10 = alloca i64, align 8
  %11 = alloca i64, align 8
  %12 = alloca i32, align 4
  store ptr %0, ptr %6, align 8, !tbaa !3
  store ptr %1, ptr %7, align 8, !tbaa !8
  store ptr %2, ptr %8, align 8, !tbaa !8
  store i64 %3, ptr %9, align 8, !tbaa !12
  call void @llvm.lifetime.start.p0(i64 8, ptr %10) #3
  call void @llvm.lifetime.start.p0(i64 8, ptr %11) #3
  %13 = load ptr, ptr %6, align 8, !tbaa !3
  %14 = call ptr @EVP_CIPHER_CTX_get0_cipher(ptr noundef %13)
  %15 = getelementptr inbounds nuw %struct.evp_cipher_st, ptr %14, i32 0, i32 1
  %16 = load i32, ptr %15, align 4, !tbaa !18
  %17 = sext i32 %16 to i64
  store i64 %17, ptr %11, align 8, !tbaa !12
  %18 = load i64, ptr %9, align 8, !tbaa !12
  %19 = load i64, ptr %11, align 8, !tbaa !12
  %20 = icmp ult i64 %18, %19
  br i1 %20, label %21, label %22

21:                                               ; preds = %4
  store i32 1, ptr %5, align 4
  store i32 1, ptr %12, align 4
  br label %47

22:                                               ; preds = %4
  %23 = load i64, ptr %11, align 8, !tbaa !12
  %24 = load i64, ptr %9, align 8, !tbaa !12
  %25 = sub i64 %24, %23
  store i64 %25, ptr %9, align 8, !tbaa !12
  store i64 0, ptr %10, align 8, !tbaa !12
  br label %26

26:                                               ; preds = %42, %22
  %27 = load i64, ptr %10, align 8, !tbaa !12
  %28 = load i64, ptr %9, align 8, !tbaa !12
  %29 = icmp ule i64 %27, %28
  br i1 %29, label %30, label %46

30:                                               ; preds = %26
  %31 = load ptr, ptr %8, align 8, !tbaa !8
  %32 = load i64, ptr %10, align 8, !tbaa !12
  %33 = getelementptr inbounds nuw i8, ptr %31, i64 %32
  %34 = load ptr, ptr %7, align 8, !tbaa !8
  %35 = load i64, ptr %10, align 8, !tbaa !12
  %36 = getelementptr inbounds nuw i8, ptr %34, i64 %35
  %37 = load ptr, ptr %6, align 8, !tbaa !3
  %38 = call ptr @EVP_CIPHER_CTX_get_cipher_data(ptr noundef %37)
  %39 = getelementptr inbounds nuw %struct.EVP_SEED_KEY, ptr %38, i32 0, i32 0
  %40 = load ptr, ptr %6, align 8, !tbaa !3
  %41 = call i32 @EVP_CIPHER_CTX_is_encrypting(ptr noundef %40)
  call void @SEED_ecb_encrypt(ptr noundef %33, ptr noundef %36, ptr noundef %39, i32 noundef %41)
  br label %42

42:                                               ; preds = %30
  %43 = load i64, ptr %11, align 8, !tbaa !12
  %44 = load i64, ptr %10, align 8, !tbaa !12
  %45 = add i64 %44, %43
  store i64 %45, ptr %10, align 8, !tbaa !12
  br label %26, !llvm.loop !22

46:                                               ; preds = %26
  store i32 1, ptr %5, align 4
  store i32 1, ptr %12, align 4
  br label %47

47:                                               ; preds = %46, %21
  call void @llvm.lifetime.end.p0(i64 8, ptr %11) #3
  call void @llvm.lifetime.end.p0(i64 8, ptr %10) #3
  %48 = load i32, ptr %5, align 4
  ret i32 %48
}